target datalayout = "e-m:e-p270:32:32-p271:32:32-p272:64:64-i64:64-i128:128-f80:128-n8:16:32:64-S128"
target triple = "x86_64-pc-linux-gnu"

%class.CongratsDialog = type { %class.QDialog, ptr }
%class.QDialog = type { %class.QWidget }
%class.QWidget = type { %class.QObject, %class.QPaintDevice, ptr }
%class.QObject = type { ptr, %class.QScopedPointer }
%class.QScopedPointer = type { ptr }
%class.QPaintDevice = type { ptr, i16, ptr }
%class.QString = type { ptr }
%class.Ui_CongratsDialog = type { ptr, ptr, ptr, ptr, ptr, ptr, ptr }
%class.QSettings = type { %class.QObject }
%class.QVariant = type { %"struct.QVariant::Private" }
%"struct.QVariant::Private" = type <{ %"union.QVariant::Private::Data", i32, [4 x i8] }>
%"union.QVariant::Private::Data" = type { i64 }

@.str.22 = private unnamed_addr constant [24 x i8] c"dontRemindMeToSendEmail\00", align 1
@.str.23 = private unnamed_addr constant [20 x i8] c"congratsMeshCounter\00", align 1

; Function Attrs: mustprogress uwtable
define linkonce_odr void @_ZN7QStringC2EPKc(ptr noundef nonnull align 8 dereferenceable(8) %0, ptr noundef %1) unnamed_addr #5 comdat align 2 {
  %3 = alloca ptr, align 8
  %4 = alloca ptr, align 8
  store ptr %0, ptr %3, align 8
  store ptr %1, ptr %4, align 8
  %5 = load ptr, ptr %3, align 8
  %6 = getelementptr inbounds %class.QString, ptr %5, i32 0, i32 0
  %7 = load ptr, ptr %4, align 8
  %8 = load ptr, ptr %4, align 8
  %9 = icmp ne ptr %8, null
  br i1 %9, label %10, label %14

10:                                               ; preds = %2
  %11 = load ptr, ptr %4, align 8
  %12 = call i64 @strlen(ptr noundef %11) #16
  %13 = trunc i64 %12 to i32
  br label %15

14:                                               ; preds = %2
  br label %15

15:                                               ; preds = %14, %10
  %16 = phi i32 [ %13, %10 ], [ -1, %14 ]
  %17 = call noundef ptr @_ZN7QString16fromAscii_helperEPKci(ptr noundef %7, i32 noundef %16)
  store ptr %17, ptr %6, align 8
  ret void
}

; Function Attrs: mustprogress uwtable
define void @_ZN14CongratsDialog21updateDontShowSettingEv(ptr noundef nonnull align 8 dereferenceable(56) %0) #5 align 2 personality ptr @__gxx_personality_v0 {
  %2 = alloca ptr, align 8
  %3 = alloca %class.QString, align 8
  %4 = alloca %class.QSettings, align 8
  %5 = alloca ptr, align 8
  %6 = alloca i32, align 4
  %7 = alloca i32, align 4
  %8 = alloca %class.QVariant, align 8
  %9 = alloca %class.QString, align 8
  %10 = alloca %class.QVariant, align 8
  %11 = alloca %class.QString, align 8
  %12 = alloca %class.QVariant, align 8
  %13 = alloca %class.QVariant, align 8
  %14 = alloca %class.QVariant, align 8
  store ptr %0, ptr %2, align 8
  %15 = load ptr, ptr %2, align 8
  call void @_ZN7QStringC2EPKc(ptr noundef nonnull align 8 dereferenceable(8) %3, ptr noundef @.str.22)
  invoke void @_ZN9QSettingsC1EP7QObject(ptr noundef nonnull align 8 dereferenceable(16) %4, ptr noundef null)
          to label %16 unwind label %36

16:                                               ; preds = %1
  invoke void @_ZN7QStringC2EPKc(ptr noundef nonnull align 8 dereferenceable(8) %9, ptr noundef @.str.23)
          to label %17 unwind label %40

17:                                               ; preds = %16
  invoke void @_ZN8QVariantC1Ei(ptr noundef nonnull align 8 dereferenceable(16) %10, i32 noundef 50)
          to label %18 unwind label %44

18:                                               ; preds = %17
  invoke void @_ZNK9QSettings5valueERK7QStringRK8QVariant(ptr dead_on_unwind writable sret(%class.QVariant) align 8 %8, ptr noundef nonnull align 8 dereferenceable(16) %4, ptr noundef nonnull align 8 dereferenceable(8) %9, ptr noundef nonnull align 8 dereferenceable(16) %10)
          to label %19 unwind label %48

19:                                               ; preds = %18
  %20 = invoke noundef i32 @_ZNK8QVariant5toIntEPb(ptr noundef nonnull align 8 dereferenceable(16) %8, ptr noundef null)
          to label %21 unwind label %52

21:                                               ; preds = %19
  call void @_ZN8QVariantD1Ev(ptr noundef nonnull align 8 dereferenceable(16) %8) #3
  call void @_ZN8QVariantD1Ev(ptr noundef nonnull align 8 dereferenceable(16) %10) #3
  call void @_ZN7QStringD2Ev(ptr noundef nonnull align 8 dereferenceable(8) %9) #3
  store i32 %20, ptr %7, align 4
  invoke void @_ZN7QStringC2EPKc(ptr noundef nonnull align 8 dereferenceable(8) %11, ptr noundef @.str.23)
          to label %22 unwind label %40

22:                                               ; preds = %21
  %23 = load i32, ptr %7, align 4
  %24 = mul nsw i32 %23, 2
  invoke void @_ZN8QVariantC1Ei(ptr noundef nonnull align 8 dereferenceable(16) %12, i32 noundef %24)
          to label %25 unwind label %58

25:                                               ; preds = %22
  invoke void @_ZN9QSettings8setValueERK7QStringRK8QVariant(ptr noundef nonnull align 8 dereferenceable(16) %4, ptr noundef nonnull align 8 dereferenceable(8) %11, ptr noundef nonnull align 8 dereferenceable(16) %12)
          to label %26 unwind label %62

26:                                               ; preds = %25
  call void @_ZN8QVariantD1Ev(ptr noundef nonnull align 8 dereferenceable(16) %12) #3
  call void @_ZN7QStringD2Ev(ptr noundef nonnull align 8 dereferenceable(8) %11) #3
  %27 = getelementptr inbounds %class.CongratsDialog, ptr %15, i32 0, i32 1
  %28 = load ptr, ptr %27, align 8
  %29 = getelementptr inbounds %class.Ui_CongratsDialog, ptr %28, i32 0, i32 5
  %30 = load ptr, ptr %29, align 8
  %31 = invoke noundef zeroext i1 @_ZNK15QAbstractButton9isCheckedEv(ptr noundef nonnull align 8 dereferenceable(48) %30)
          to label %32 unwind label %40

32:                                               ; preds = %26
  br i1 %31, label %33, label %71

33:                                               ; preds = %32
  invoke void @_ZN8QVariantC1Eb(ptr noundef nonnull align 8 dereferenceable(16) %13, i1 noundef zeroext true)
          to label %34 unwind label %40

34:                                               ; preds = %33
  invoke void @_ZN9QSettings8setValueERK7QStringRK8QVariant(ptr noundef nonnull align 8 dereferenceable(16) %4, ptr noundef nonnull align 8 dereferenceable(8) %3, ptr noundef nonnull align 8 dereferenceable(16) %13)
          to label %35 unwind label %67

35:                                               ; preds = %34
  call void @_ZN8QVariantD1Ev(ptr noundef nonnull align 8 dereferenceable(16) %13) #3
  br label %78

36:                                               ; preds = %1
  %37 = landingpad { ptr, i32 }
          cleanup
  %38 = extractvalue { ptr, i32 } %37, 0
  store ptr %38, ptr %5, align 8
  %39 = extractvalue { ptr, i32 } %37, 1
  store i32 %39, ptr %6, align 4
  br label %80

40:                                               ; preds = %71, %33, %26, %21, %16
  %41 = landingpad { ptr, i32 }
          cleanup
  %42 = extractvalue { ptr, i32 } %41, 0
  store ptr %42, ptr %5, align 8
  %43 = extractvalue { ptr, i32 } %41, 1
  store i32 %43, ptr %6, align 4
  br label %79

44:                                               ; preds = %17
  %45 = landingpad { ptr, i32 }
          cleanup
  %46 = extractvalue { ptr, i32 } %45, 0
  store ptr %46, ptr %5, align 8
  %47 = extractvalue { ptr, i32 } %45, 1
  store i32 %47, ptr %6, align 4
  br label %57

48:                                               ; preds = %18
  %49 = landingpad { ptr, i32 }
          cleanup
  %50 = extractvalue { ptr, i32 } %49, 0
  store ptr %50, ptr %5, align 8
  %51 = extractvalue { ptr, i32 } %49, 1
  store i32 %51, ptr %6, align 4
  br label %56

52:                                               ; preds = %19
  %53 = landingpad { ptr, i32 }
          cleanup
  %54 = extractvalue { ptr, i32 } %53, 0
  store ptr %54, ptr %5, align 8
  %55 = extractvalue { ptr, i32 } %53, 1
  store i32 %55, ptr %6, align 4
  call void @_ZN8QVariantD1Ev(ptr noundef nonnull align 8 dereferenceable(16) %8) #3
  br label %56

56:                                               ; preds = %52, %48
  call void @_ZN8QVariantD1Ev(ptr noundef nonnull align 8 dereferenceable(16) %10) #3
  br label %57

57:                                               ; preds = %56, %44
  call void @_ZN7QStringD2Ev(ptr noundef nonnull align 8 dereferenceable(8) %9) #3
  br label %79

58:                                               ; preds = %22
  %59 = landingpad { ptr, i32 }
          cleanup
  %60 = extractvalue { ptr, i32 } %59, 0
  store ptr %60, ptr %5, align 8
  %61 = extractvalue { ptr, i32 } %59, 1
  store i32 %61, ptr %6, align 4
  br label %66

62:                                               ; preds = %25
  %63 = landingpad { ptr, i32 }
          cleanup
  %64 = extractvalue { ptr, i32 } %63, 0
  store ptr %64, ptr %5, align 8
  %65 = extractvalue { ptr, i32 } %63, 1
  store i32 %65, ptr %6, align 4
  call void @_ZN8QVariantD1Ev(ptr noundef nonnull align 8 dereferenceable(16) %12) #3
  br label %66

66:                                               ; preds = %62, %58
  call void @_ZN7QStringD2Ev(ptr noundef nonnull align 8 dereferenceable(8) %11) #3
  br label %79

67:                                               ; preds = %34
  %68 = landingpad { ptr, i32 }
          cleanup
  %69 = extractvalue { ptr, i32 } %68, 0
  store ptr %69, ptr %5, align 8
  %70 = extractvalue { ptr, i32 } %68, 1
  store i32 %70, ptr %6, align 4
  call void @_ZN8QVariantD1Ev(ptr noundef nonnull align 8 dereferenceable(16) %13) #3
  br label %79

71:                                               ; preds = %32
  invoke void @_ZN8QVariantC1Eb(ptr noundef nonnull align 8 dereferenceable(16) %14, i1 noundef zeroext false)
          to label %72 unwind label %40

72:                                               ; preds = %71
  invoke void @_ZN9QSettings8setValueERK7QStringRK8QVariant(ptr noundef nonnull align 8 dereferenceable(16) %4, ptr noundef nonnull align 8 dereferenceable(8) %3, ptr noundef nonnull align 8 dereferenceable(16) %14)
          to label %73 unwind label %74

73:                                               ; preds = %72
  call void @_ZN8QVariantD1Ev(ptr noundef nonnull align 8 dereferenceable(16) %14) #3
  br label %78

74:                                               ; preds = %72
  %75 = landingpad { ptr, i32 }
          cleanup
  %76 = extractvalue { ptr, i32 } %75, 0
  store ptr %76, ptr %5, align 8
  %77 = extractvalue { ptr, i32 } %75, 1
  store i32 %77, ptr %6, align 4
  call void @_ZN8QVariantD1Ev(ptr noundef nonnull align 8 dereferenceable(16) %14) #3
  br label %79

78:                                               ; preds = %73, %35
  call void @_ZN9QSettingsD1Ev(ptr noundef nonnull align 8 dereferenceable(16) %4) #3
  call void @_ZN7QStringD2Ev(ptr noundef nonnull align 8 dereferenceable(8) %3) #3
  ret void

79:                                               ; preds = %74, %67, %66, %57, %40
  call void @_ZN9QSettingsD1Ev(ptr noundef nonnull align 8 dereferenceable(16) %4) #3
  br label %80

80:                                               ; preds = %79, %36
  call void @_ZN7QStringD2Ev(ptr noundef nonnull align 8 dereferenceable(8) %3) #3
  br label %81

81:                                               ; preds = %80
  %82 = load ptr, ptr %5, align 8
  %83 = load i32, ptr %6, align 4
  %84 = insertvalue { ptr, i32 } poison, ptr %82, 0
  %85 = insertvalue { ptr, i32 } %84, i32 %83, 1
  resume { ptr, i32 } %85
}