; Function Attrs: mustprogress uwtable
define void @_ZN14CongratsDialog21updateDontShowSettingEv(ptr nocapture noundef nonnull readonly align 8 dereferenceable(56) %0) local_unnamed_addr #3 align 2 personality ptr @__gxx_personality_v0 {
  %2 = alloca %class.QString, align 8
  %3 = alloca %class.QSettings, align 8
  %4 = alloca %class.QVariant, align 8
  %5 = alloca %class.QString, align 8
  %6 = alloca %class.QVariant, align 8
  %7 = alloca %class.QString, align 8
  %8 = alloca %class.QVariant, align 8
  %9 = alloca %class.QVariant, align 8
  %10 = alloca %class.QVariant, align 8
  %11 = tail call noundef ptr @_ZN7QString16fromAscii_helperEPKci(ptr noundef nonnull @.str.22, i32 noundef 23)
  store ptr %11, ptr %2, align 8
  invoke void @_ZN9QSettingsC1EP7QObject(ptr noundef nonnull align 8 dereferenceable(16) %3, ptr noundef null)
          to label %12 unwind label %40

12:                                               ; preds = %1
  %13 = invoke noundef ptr @_ZN7QString16fromAscii_helperEPKci(ptr noundef nonnull @.str.23, i32 noundef 19)
          to label %14 unwind label %42

14:                                               ; preds = %12
  store ptr %13, ptr %5, align 8
  invoke void @_ZN8QVariantC1Ei(ptr noundef nonnull align 8 dereferenceable(16) %6, i32 noundef 50)
          to label %15 unwind label %44

15:                                               ; preds = %14
  invoke void @_ZNK9QSettings5valueERK7QStringRK8QVariant(ptr dead_on_unwind nonnull writable sret(%class.QVariant) align 8 %4, ptr noundef nonnull align 8 dereferenceable(16) %3, ptr noundef nonnull align 8 dereferenceable(8) %5, ptr noundef nonnull align 8 dereferenceable(16) %6)
          to label %16 unwind label %46

16:                                               ; preds = %15
  %17 = invoke noundef i32 @_ZNK8QVariant5toIntEPb(ptr noundef nonnull align 8 dereferenceable(16) %4, ptr noundef null)
          to label %18 unwind label %48

18:                                               ; preds = %16
  call void @_ZN8QVariantD1Ev(ptr noundef nonnull align 8 dereferenceable(16) %4) #11
  call void @_ZN8QVariantD1Ev(ptr noundef nonnull align 8 dereferenceable(16) %6) #11
  %19 = load ptr, ptr %5, align 8
  %20 = load atomic i32, ptr %19 monotonic, align 4
  switch i32 %20, label %_ZN9QtPrivate8RefCount5derefEv.exit.i [
    i32 0, label %_ZN9QtPrivate8RefCount5derefEv.exit.thread2.i
    i32 -1, label %_ZN7QStringD2Ev.exit
  ]

_ZN9QtPrivate8RefCount5derefEv.exit.i:            ; preds = %18
  %21 = atomicrmw sub ptr %19, i32 1 seq_cst, align 4
  %.not.i = icmp eq i32 %21, 1
  br i1 %.not.i, label %_ZN9QtPrivate8RefCount5derefEv.exit._ZN9QtPrivate8RefCount5derefEv.exit.thread2_crit_edge.i, label %_ZN7QStringD2Ev.exit

_ZN9QtPrivate8RefCount5derefEv.exit._ZN9QtPrivate8RefCount5derefEv.exit.thread2_crit_edge.i: ; preds = %_ZN9QtPrivate8RefCount5derefEv.exit.i
  %.pre.i = load ptr, ptr %5, align 8
  br label %_ZN9QtPrivate8RefCount5derefEv.exit.thread2.i

_ZN9QtPrivate8RefCount5derefEv.exit.thread2.i:    ; preds = %_ZN9QtPrivate8RefCount5derefEv.exit._ZN9QtPrivate8RefCount5derefEv.exit.thread2_crit_edge.i, %18
  %22 = phi ptr [ %.pre.i, %_ZN9QtPrivate8RefCount5derefEv.exit._ZN9QtPrivate8RefCount5derefEv.exit.thread2_crit_edge.i ], [ %19, %18 ]
  call void @_ZN10QArrayData10deallocateEPS_mm(ptr noundef %22, i64 noundef 2, i64 noundef 8) #11
  br label %_ZN7QStringD2Ev.exit

_ZN7QStringD2Ev.exit:                             ; preds = %18, %_ZN9QtPrivate8RefCount5derefEv.exit.i, %_ZN9QtPrivate8RefCount5derefEv.exit.thread2.i
  %23 = invoke noundef ptr @_ZN7QString16fromAscii_helperEPKci(ptr noundef nonnull @.str.23, i32 noundef 19)
          to label %24 unwind label %42

24:                                               ; preds = %_ZN7QStringD2Ev.exit
  store ptr %23, ptr %7, align 8
  %25 = shl nsw i32 %17, 1
  invoke void @_ZN8QVariantC1Ei(ptr noundef nonnull align 8 dereferenceable(16) %8, i32 noundef %25)
          to label %26 unwind label %52

26:                                               ; preds = %24
  invoke void @_ZN9QSettings8setValueERK7QStringRK8QVariant(ptr noundef nonnull align 8 dereferenceable(16) %3, ptr noundef nonnull align 8 dereferenceable(8) %7, ptr noundef nonnull align 8 dereferenceable(16) %8)
          to label %27 unwind label %54

27:                                               ; preds = %26
  call void @_ZN8QVariantD1Ev(ptr noundef nonnull align 8 dereferenceable(16) %8) #11
  %28 = load ptr, ptr %7, align 8
  %29 = load atomic i32, ptr %28 monotonic, align 4
  switch i32 %29, label %_ZN9QtPrivate8RefCount5derefEv.exit.i17 [
    i32 0, label %_ZN9QtPrivate8RefCount5derefEv.exit.thread2.i16
    i32 -1, label %_ZN7QStringD2Ev.exit21
  ]

_ZN9QtPrivate8RefCount5derefEv.exit.i17:          ; preds = %27
  %30 = atomicrmw sub ptr %28, i32 1 seq_cst, align 4
  %.not.i18 = icmp eq i32 %30, 1
  br i1 %.not.i18, label %_ZN9QtPrivate8RefCount5derefEv.exit._ZN9QtPrivate8RefCount5derefEv.exit.thread2_crit_edge.i19, label %_ZN7QStringD2Ev.exit21

_ZN9QtPrivate8RefCount5derefEv.exit._ZN9QtPrivate8RefCount5derefEv.exit.thread2_crit_edge.i19: ; preds = %_ZN9QtPrivate8RefCount5derefEv.exit.i17
  %.pre.i20 = load ptr, ptr %7, align 8
  br label %_ZN9QtPrivate8RefCount5derefEv.exit.thread2.i16

_ZN9QtPrivate8RefCount5derefEv.exit.thread2.i16:  ; preds = %_ZN9QtPrivate8RefCount5derefEv.exit._ZN9QtPrivate8RefCount5derefEv.exit.thread2_crit_edge.i19, %27
  %31 = phi ptr [ %.pre.i20, %_ZN9QtPrivate8RefCount5derefEv.exit._ZN9QtPrivate8RefCount5derefEv.exit.thread2_crit_edge.i19 ], [ %28, %27 ]
  call void @_ZN10QArrayData10deallocateEPS_mm(ptr noundef %31, i64 noundef 2, i64 noundef 8) #11
  br label %_ZN7QStringD2Ev.exit21

_ZN7QStringD2Ev.exit21:                           ; preds = %27, %_ZN9QtPrivate8RefCount5derefEv.exit.i17, %_ZN9QtPrivate8RefCount5derefEv.exit.thread2.i16
  %32 = getelementptr inbounds i8, ptr %0, i64 48
  %33 = load ptr, ptr %32, align 8
  %34 = getelementptr inbounds i8, ptr %33, i64 40
  %35 = load ptr, ptr %34, align 8
  %36 = invoke noundef zeroext i1 @_ZNK15QAbstractButton9isCheckedEv(ptr noundef nonnull align 8 dereferenceable(48) %35)
          to label %37 unwind label %42

37:                                               ; preds = %_ZN7QStringD2Ev.exit21
  br i1 %36, label %38, label %59

38:                                               ; preds = %37
  invoke void @_ZN8QVariantC1Eb(ptr noundef nonnull align 8 dereferenceable(16) %9, i1 noundef zeroext true)
          to label %39 unwind label %42

39:                                               ; preds = %38
  invoke void @_ZN9QSettings8setValueERK7QStringRK8QVariant(ptr noundef nonnull align 8 dereferenceable(16) %3, ptr noundef nonnull align 8 dereferenceable(8) %2, ptr noundef nonnull align 8 dereferenceable(16) %9)
          to label %63 unwind label %57

40:                                               ; preds = %1
  %41 = landingpad { ptr, i32 }
          cleanup
  br label %69

42:                                               ; preds = %_ZN7QStringD2Ev.exit, %12, %59, %38, %_ZN7QStringD2Ev.exit21
  %43 = landingpad { ptr, i32 }
          cleanup
  br label %68

44:                                               ; preds = %14
  %45 = landingpad { ptr, i32 }
          cleanup
  br label %51

46:                                               ; preds = %15
  %47 = landingpad { ptr, i32 }
          cleanup
  br label %50

48:                                               ; preds = %16
  %49 = landingpad { ptr, i32 }
          cleanup
  call void @_ZN8QVariantD1Ev(ptr noundef nonnull align 8 dereferenceable(16) %4) #11
  br label %50

50:                                               ; preds = %48, %46
  %.pn = phi { ptr, i32 } [ %49, %48 ], [ %47, %46 ]
  call void @_ZN8QVariantD1Ev(ptr noundef nonnull align 8 dereferenceable(16) %6) #11
  br label %51

51:                                               ; preds = %50, %44
  %.pn.pn = phi { ptr, i32 } [ %.pn, %50 ], [ %45, %44 ]
  call void @_ZN7QStringD2Ev(ptr noundef nonnull align 8 dereferenceable(8) %5) #11
  br label %68

52:                                               ; preds = %24
  %53 = landingpad { ptr, i32 }
          cleanup
  br label %56

54:                                               ; preds = %26
  %55 = landingpad { ptr, i32 }
          cleanup
  call void @_ZN8QVariantD1Ev(ptr noundef nonnull align 8 dereferenceable(16) %8) #11
  br label %56

56:                                               ; preds = %54, %52
  %.pn10 = phi { ptr, i32 } [ %55, %54 ], [ %53, %52 ]
  call void @_ZN7QStringD2Ev(ptr noundef nonnull align 8 dereferenceable(8) %7) #11
  br label %68

57:                                               ; preds = %39
  %58 = landingpad { ptr, i32 }
          cleanup
  call void @_ZN8QVariantD1Ev(ptr noundef nonnull align 8 dereferenceable(16) %9) #11
  br label %68

59:                                               ; preds = %37
  invoke void @_ZN8QVariantC1Eb(ptr noundef nonnull align 8 dereferenceable(16) %10, i1 noundef zeroext false)
          to label %60 unwind label %42

60:                                               ; preds = %59
  invoke void @_ZN9QSettings8setValueERK7QStringRK8QVariant(ptr noundef nonnull align 8 dereferenceable(16) %3, ptr noundef nonnull align 8 dereferenceable(8) %2, ptr noundef nonnull align 8 dereferenceable(16) %10)
          to label %63 unwind label %61

61:                                               ; preds = %60
  %62 = landingpad { ptr, i32 }
          cleanup
  call void @_ZN8QVariantD1Ev(ptr noundef nonnull align 8 dereferenceable(16) %10) #11
  br label %68

63:                                               ; preds = %60, %39
  %.sink = phi ptr [ %9, %39 ], [ %10, %60 ]
  call void @_ZN8QVariantD1Ev(ptr noundef nonnull align 8 dereferenceable(16) %.sink) #11
  call void @_ZN9QSettingsD1Ev(ptr noundef nonnull align 8 dereferenceable(16) %3) #11
  %64 = load ptr, ptr %2, align 8
  %65 = load atomic i32, ptr %64 monotonic, align 4
  switch i32 %65, label %_ZN9QtPrivate8RefCount5derefEv.exit.i23 [
    i32 0, label %_ZN9QtPrivate8RefCount5derefEv.exit.thread2.i22
    i32 -1, label %_ZN7QStringD2Ev.exit27
  ]

_ZN9QtPrivate8RefCount5derefEv.exit.i23:          ; preds = %63
  %66 = atomicrmw sub ptr %64, i32 1 seq_cst, align 4
  %.not.i24 = icmp eq i32 %66, 1
  br i1 %.not.i24, label %_ZN9QtPrivate8RefCount5derefEv.exit._ZN9QtPrivate8RefCount5derefEv.exit.thread2_crit_edge.i25, label %_ZN7QStringD2Ev.exit27

_ZN9QtPrivate8RefCount5derefEv.exit._ZN9QtPrivate8RefCount5derefEv.exit.thread2_crit_edge.i25: ; preds = %_ZN9QtPrivate8RefCount5derefEv.exit.i23
  %.pre.i26 = load ptr, ptr %2, align 8
  br label %_ZN9QtPrivate8RefCount5derefEv.exit.thread2.i22

_ZN9QtPrivate8RefCount5derefEv.exit.thread2.i22:  ; preds = %_ZN9QtPrivate8RefCount5derefEv.exit._ZN9QtPrivate8RefCount5derefEv.exit.thread2_crit_edge.i25, %63
  %67 = phi ptr [ %.pre.i26, %_ZN9QtPrivate8RefCount5derefEv.exit._ZN9QtPrivate8RefCount5derefEv.exit.thread2_crit_edge.i25 ], [ %64, %63 ]
  call void @_ZN10QArrayData10deallocateEPS_mm(ptr noundef %67, i64 noundef 2, i64 noundef 8) #11
  br label %_ZN7QStringD2Ev.exit27

_ZN7QStringD2Ev.exit27:                           ; preds = %63, %_ZN9QtPrivate8RefCount5derefEv.exit.i23, %_ZN9QtPrivate8RefCount5derefEv.exit.thread2.i22
  ret void

68:                                               ; preds = %61, %57, %56, %51, %42
  %.pn12 = phi { ptr, i32 } [ %58, %57 ], [ %43, %42 ], [ %62, %61 ], [ %.pn10, %56 ], [ %.pn.pn, %51 ]
  call void @_ZN9QSettingsD1Ev(ptr noundef nonnull align 8 dereferenceable(16) %3) #11
  br label %69

69:                                               ; preds = %68, %40
  %.pn12.pn = phi { ptr, i32 } [ %.pn12, %68 ], [ %41, %40 ]
  call void @_ZN7QStringD2Ev(ptr noundef nonnull align 8 dereferenceable(8) %2) #11
  resume { ptr, i32 } %.pn12.pn
}